(dp0
S'chr13'
p1
(lp2
cnumpy.core.multiarray
_reconstruct
p3
(cnumpy
ndarray
p4
(I0
tp5
S'b'
p6
tp7
Rp8
(I1
(I1
tp9
cnumpy
dtype
p10
(S'f8'
p11
I0
I1
tp12
Rp13
(I3
S'<'
p14
NNNI-1
I-1
I0
tp15
bI00
S'\xd7\xcd\x00\x00\x00\x00\xf0?'
p16
tp17
bag3
(g4
(I0
tp18
g6
tp19
Rp20
(I1
(I1
tp21
g13
I00
S'\x98\xf5x\xd3\xf4I\xeb?'
p22
tp23
bag3
(g4
(I0
tp24
g6
tp25
Rp26
(I1
(I1
tp27
g13
I00
S'\'dG"\x95\xbf\xe3?'
p28
tp29
bag3
(g4
(I0
tp30
g6
tp31
Rp32
(I1
(I1
tp33
g13
I00
S'\xbeu\x86sH3\xe0?'
p34
tp35
basS'chr12'
p36
(lp37
g3
(g4
(I0
tp38
g6
tp39
Rp40
(I1
(I1
tp41
g13
I00
S'\x97j\xf8\xff\xff\xff\xef?'
p42
tp43
bag3
(g4
(I0
tp44
g6
tp45
Rp46
(I1
(I1
tp47
g13
I00
S'C)\xcc\xfd?\x95\xeb?'
p48
tp49
bag3
(g4
(I0
tp50
g6
tp51
Rp52
(I1
(I1
tp53
g13
I00
S'\xe9\xe9OCv,\xe4?'
p54
tp55
bag3
(g4
(I0
tp56
g6
tp57
Rp58
(I1
(I1
tp59
g13
I00
S'\x14\x0b{\xe4\xd3{\xe0?'
p60
tp61
basS'chr11'
p62
(lp63
g3
(g4
(I0
tp64
g6
tp65
Rp66
(I1
(I1
tp67
g13
I00
S'>\xc7\xff\xff\xff\xff\xef?'
p68
tp69
bag3
(g4
(I0
tp70
g6
tp71
Rp72
(I1
(I1
tp73
g13
I00
S'D\xf2\r\x08\xf4{\xeb?'
p74
tp75
bag3
(g4
(I0
tp76
g6
tp77
Rp78
(I1
(I1
tp79
g13
I00
S'VS\x0e\xda\x1a\xbe\xe3?'
p80
tp81
bag3
(g4
(I0
tp82
g6
tp83
Rp84
(I1
(I1
tp85
g13
I00
S'\xc8\xf8\xa2\x1c\xa8!\xe0?'
p86
tp87
basS'chr10'
p88
(lp89
g3
(g4
(I0
tp90
g6
tp91
Rp92
(I1
(I1
tp93
g13
I00
S'\xb4B\xf4\xff\xff\xff\xef?'
p94
tp95
bag3
(g4
(I0
tp96
g6
tp97
Rp98
(I1
(I1
tp99
g13
I00
S'\xc5 \xa5\nJp\xeb?'
p100
tp101
bag3
(g4
(I0
tp102
g6
tp103
Rp104
(I1
(I1
tp105
g13
I00
S'8\x027\\v\xc1\xe3?'
p106
tp107
bag3
(g4
(I0
tp108
g6
tp109
Rp110
(I1
(I1
tp111
g13
I00
S'/J,pB\x02\xe0?'
p112
tp113
basS'chr17'
p114
(lp115
g3
(g4
(I0
tp116
g6
tp117
Rp118
(I1
(I1
tp119
g13
I00
S'\xbe\x16\x02\x00\x00\x00\xf0?'
p120
tp121
bag3
(g4
(I0
tp122
g6
tp123
Rp124
(I1
(I1
tp125
g13
I00
S'V\x04\x0f\xf4\xe7\x83\xeb?'
p126
tp127
bag3
(g4
(I0
tp128
g6
tp129
Rp130
(I1
(I1
tp131
g13
I00
S'(\xa5[\\\xd9Z\xe4?'
p132
tp133
bag3
(g4
(I0
tp134
g6
tp135
Rp136
(I1
(I1
tp137
g13
I00
S'Hn}sW\xd0\xe0?'
p138
tp139
basS'chr16'
p140
(lp141
g3
(g4
(I0
tp142
g6
tp143
Rp144
(I1
(I1
tp145
g13
I00
S'h\x91\xfd\xff\xff\xff\xef?'
p146
tp147
bag3
(g4
(I0
tp148
g6
tp149
Rp150
(I1
(I1
tp151
g13
I00
S'\xf6\x1c\x07\xc1K\xb1\xeb?'
p152
tp153
bag3
(g4
(I0
tp154
g6
tp155
Rp156
(I1
(I1
tp157
g13
I00
S'\xa8a\xb1\x8a\xfc)\xe4?'
p158
tp159
bag3
(g4
(I0
tp160
g6
tp161
Rp162
(I1
(I1
tp163
g13
I00
S'\xd7\xd5\xb6\x10\x91\xbe\xe0?'
p164
tp165
basS'chr15'
p166
(lp167
g3
(g4
(I0
tp168
g6
tp169
Rp170
(I1
(I1
tp171
g13
I00
S'\xad_\xfc\xff\xff\xff\xef?'
p172
tp173
bag3
(g4
(I0
tp174
g6
tp175
Rp176
(I1
(I1
tp177
g13
I00
S'M0\xdf\x152\x84\xeb?'
p178
tp179
bag3
(g4
(I0
tp180
g6
tp181
Rp182
(I1
(I1
tp183
g13
I00
S'\x18\xfa\x00\xa7[&\xe4?'
p184
tp185
bag3
(g4
(I0
tp186
g6
tp187
Rp188
(I1
(I1
tp189
g13
I00
S'(m5@\xb8u\xe0?'
p190
tp191
basS'chr14'
p192
(lp193
g3
(g4
(I0
tp194
g6
tp195
Rp196
(I1
(I1
tp197
g13
I00
S'\x87\x8c\xfe\xff\xff\xff\xef?'
p198
tp199
bag3
(g4
(I0
tp200
g6
tp201
Rp202
(I1
(I1
tp203
g13
I00
S'X\xecX\xe9*\xbe\xeb?'
p204
tp205
bag3
(g4
(I0
tp206
g6
tp207
Rp208
(I1
(I1
tp209
g13
I00
S'\x02p\xc1\xab\xbdJ\xe4?'
p210
tp211
bag3
(g4
(I0
tp212
g6
tp213
Rp214
(I1
(I1
tp215
g13
I00
S'd9\x81!1\xae\xe0?'
p216
tp217
basS'chr19'
p218
(lp219
g3
(g4
(I0
tp220
g6
tp221
Rp222
(I1
(I1
tp223
g13
I00
S'|z\x01\x00\x00\x00\xf0?'
p224
tp225
bag3
(g4
(I0
tp226
g6
tp227
Rp228
(I1
(I1
tp229
g13
I00
S'LI\x8a\xc2\xc7\xc6\xeb?'
p230
tp231
bag3
(g4
(I0
tp232
g6
tp233
Rp234
(I1
(I1
tp235
g13
I00
S'qe]\x93\x86\xc4\xe4?'
p236
tp237
bag3
(g4
(I0
tp238
g6
tp239
Rp240
(I1
(I1
tp241
g13
I00
S'2 \xa2\xcbeC\xe1?'
p242
tp243
basS'chr18'
p244
(lp245
g3
(g4
(I0
tp246
g6
tp247
Rp248
(I1
(I1
tp249
g13
I00
S'\xb5\x08\xfd\xff\xff\xff\xef?'
p250
tp251
bag3
(g4
(I0
tp252
g6
tp253
Rp254
(I1
(I1
tp255
g13
I00
S'\x07v\xabH\xe6V\xeb?'
p256
tp257
bag3
(g4
(I0
tp258
g6
tp259
Rp260
(I1
(I1
tp261
g13
I00
S'\xb8\x80fT\xf3\x9e\xe3?'
p262
tp263
bag3
(g4
(I0
tp264
g6
tp265
Rp266
(I1
(I1
tp267
g13
I00
S'\xfa\xe0\x1d\xd1\xe0>\xdf?'
p268
tp269
basS'chr22'
p270
(lp271
g3
(g4
(I0
tp272
g6
tp273
Rp274
(I1
(I1
tp275
g13
I00
S'E\x04\x00\x00\x00\x00\xf0?'
p276
tp277
bag3
(g4
(I0
tp278
g6
tp279
Rp280
(I1
(I1
tp281
g13
I00
S'\x7f\xc2\xea\x18%\x89\xeb?'
p282
tp283
bag3
(g4
(I0
tp284
g6
tp285
Rp286
(I1
(I1
tp287
g13
I00
S'\xdc\x91N\xbdI!\xe4?'
p288
tp289
bag3
(g4
(I0
tp290
g6
tp291
Rp292
(I1
(I1
tp293
g13
I00
S'F\xcensiY\xe0?'
p294
tp295
basS'chr20'
p296
(lp297
g3
(g4
(I0
tp298
g6
tp299
Rp300
(I1
(I1
tp301
g13
I00
S'\xc6Y\xfa\xff\xff\xff\xef?'
p302
tp303
bag3
(g4
(I0
tp304
g6
tp305
Rp306
(I1
(I1
tp307
g13
I00
S'CKY\xaf\xfb}\xeb?'
p308
tp309
bag3
(g4
(I0
tp310
g6
tp311
Rp312
(I1
(I1
tp313
g13
I00
S'4b\xb1\xc2\xe2\xdc\xe3?'
p314
tp315
bag3
(g4
(I0
tp316
g6
tp317
Rp318
(I1
(I1
tp319
g13
I00
S'I:\x94\x08\xec\n\xe0?'
p320
tp321
basS'chr21'
p322
(lp323
g3
(g4
(I0
tp324
g6
tp325
Rp326
(I1
(I1
tp327
g13
I00
S'+\xba\x01\x00\x00\x00\xf0?'
p328
tp329
bag3
(g4
(I0
tp330
g6
tp331
Rp332
(I1
(I1
tp333
g13
I00
S'\x16!\x18\xe2U\x87\xeb?'
p334
tp335
bag3
(g4
(I0
tp336
g6
tp337
Rp338
(I1
(I1
tp339
g13
I00
S'\x88\x0c\xa0<\xd2~\xe4?'
p340
tp341
bag3
(g4
(I0
tp342
g6
tp343
Rp344
(I1
(I1
tp345
g13
I00
S'\xe7\xc9\xee\xe8Q\xf2\xe0?'
p346
tp347
basS'chr7'
p348
(lp349
g3
(g4
(I0
tp350
g6
tp351
Rp352
(I1
(I1
tp353
g13
I00
S'\x00v\x04\x00\x00\x00\xf0?'
p354
tp355
bag3
(g4
(I0
tp356
g6
tp357
Rp358
(I1
(I1
tp359
g13
I00
S'\x84\xfd\xe9\xfe\xd1_\xeb?'
p360
tp361
bag3
(g4
(I0
tp362
g6
tp363
Rp364
(I1
(I1
tp365
g13
I00
S'\xc9\xbb\xbd\xb1\x9e\xbb\xe3?'
p366
tp367
bag3
(g4
(I0
tp368
g6
tp369
Rp370
(I1
(I1
tp371
g13
I00
S'\xeb\x8a\xd3\xce\x9a\xea\xdf?'
p372
tp373
basS'chr6'
p374
(lp375
g3
(g4
(I0
tp376
g6
tp377
Rp378
(I1
(I1
tp379
g13
I00
S'!\xf0\xfe\xff\xff\xff\xef?'
p380
tp381
bag3
(g4
(I0
tp382
g6
tp383
Rp384
(I1
(I1
tp385
g13
I00
S'\xc9\xfb\x92\x9e:\xad\xeb?'
p386
tp387
bag3
(g4
(I0
tp388
g6
tp389
Rp390
(I1
(I1
tp391
g13
I00
S'oGW\xd2\xc82\xe4?'
p392
tp393
bag3
(g4
(I0
tp394
g6
tp395
Rp396
(I1
(I1
tp397
g13
I00
S'E\xbb\x9csi]\xe0?'
p398
tp399
basS'chr5'
p400
(lp401
g3
(g4
(I0
tp402
g6
tp403
Rp404
(I1
(I1
tp405
g13
I00
S'\xbfJ\x06\x00\x00\x00\xf0?'
p406
tp407
bag3
(g4
(I0
tp408
g6
tp409
Rp410
(I1
(I1
tp411
g13
I00
S'\x9c\xea\x03\xd4\x92D\xeb?'
p412
tp413
bag3
(g4
(I0
tp414
g6
tp415
Rp416
(I1
(I1
tp417
g13
I00
S'\xea\x0e]h\xce\x90\xe3?'
p418
tp419
bag3
(g4
(I0
tp420
g6
tp421
Rp422
(I1
(I1
tp423
g13
I00
S'^l\xa0\xbe\xd5\x89\xdf?'
p424
tp425
basS'chr4'
p426
(lp427
g3
(g4
(I0
tp428
g6
tp429
Rp430
(I1
(I1
tp431
g13
I00
S'nO\xf8\xff\xff\xff\xef?'
p432
tp433
bag3
(g4
(I0
tp434
g6
tp435
Rp436
(I1
(I1
tp437
g13
I00
S'\xb8\x89\xe7\x89\xcb3\xeb?'
p438
tp439
bag3
(g4
(I0
tp440
g6
tp441
Rp442
(I1
(I1
tp443
g13
I00
S'qbf\xc8\x1d\x97\xe3?'
p444
tp445
bag3
(g4
(I0
tp446
g6
tp447
Rp448
(I1
(I1
tp449
g13
I00
S'\x8c^B^\x0f/\xdf?'
p450
tp451
basS'chr3'
p452
(lp453
g3
(g4
(I0
tp454
g6
tp455
Rp456
(I1
(I1
tp457
g13
I00
S'J\x1b\x07\x00\x00\x00\xf0?'
p458
tp459
bag3
(g4
(I0
tp460
g6
tp461
Rp462
(I1
(I1
tp463
g13
I00
S'\xe4qiOvG\xeb?'
p464
tp465
bag3
(g4
(I0
tp466
g6
tp467
Rp468
(I1
(I1
tp469
g13
I00
S'\xc1=3\xdaoz\xe3?'
p470
tp471
bag3
(g4
(I0
tp472
g6
tp473
Rp474
(I1
(I1
tp475
g13
I00
S'\xb7\xce\xfa\x02\xe9|\xdf?'
p476
tp477
basS'chr2'
p478
(lp479
g3
(g4
(I0
tp480
g6
tp481
Rp482
(I1
(I1
tp483
g13
I00
S'\xecM\x0c\x00\x00\x00\xf0?'
p484
tp485
bag3
(g4
(I0
tp486
g6
tp487
Rp488
(I1
(I1
tp489
g13
I00
S'\x1d\xee\x83\xdb\xdeK\xeb?'
p490
tp491
bag3
(g4
(I0
tp492
g6
tp493
Rp494
(I1
(I1
tp495
g13
I00
S'\x95\xaeI\xf1\xd4\x9a\xe3?'
p496
tp497
bag3
(g4
(I0
tp498
g6
tp499
Rp500
(I1
(I1
tp501
g13
I00
S'6d\x19\xe1\xd6~\xdf?'
p502
tp503
basS'chr1'
p504
(lp505
g3
(g4
(I0
tp506
g6
tp507
Rp508
(I1
(I1
tp509
g13
I00
S'\xbc\xe5\x05\x00\x00\x00\xf0?'
p510
tp511
bag3
(g4
(I0
tp512
g6
tp513
Rp514
(I1
(I1
tp515
g13
I00
S'@\x94;\xad=~\xeb?'
p516
tp517
bag3
(g4
(I0
tp518
g6
tp519
Rp520
(I1
(I1
tp521
g13
I00
S'A\xb1\x96\xa9\xa5\xfe\xe3?'
p522
tp523
bag3
(g4
(I0
tp524
g6
tp525
Rp526
(I1
(I1
tp527
g13
I00
S'\x81\x8a\xf1@\x1cK\xe0?'
p528
tp529
basS'chr9'
p530
(lp531
g3
(g4
(I0
tp532
g6
tp533
Rp534
(I1
(I1
tp535
g13
I00
S'\xebe\xf3\xff\xff\xff\xef?'
p536
tp537
bag3
(g4
(I0
tp538
g6
tp539
Rp540
(I1
(I1
tp541
g13
I00
S'\xdd\xf8Z\xa9-T\xeb?'
p542
tp543
bag3
(g4
(I0
tp544
g6
tp545
Rp546
(I1
(I1
tp547
g13
I00
S'\xe3\xa5\x9f\x196\xa3\xe3?'
p548
tp549
bag3
(g4
(I0
tp550
g6
tp551
Rp552
(I1
(I1
tp553
g13
I00
S'YU\xdb\xec\xee\xfb\xdf?'
p554
tp555
basS'chr8'
p556
(lp557
g3
(g4
(I0
tp558
g6
tp559
Rp560
(I1
(I1
tp561
g13
I00
S'\xd4X\x03\x00\x00\x00\xf0?'
p562
tp563
bag3
(g4
(I0
tp564
g6
tp565
Rp566
(I1
(I1
tp567
g13
I00
S'\x90U!\xb8\x90C\xeb?'
p568
tp569
bag3
(g4
(I0
tp570
g6
tp571
Rp572
(I1
(I1
tp573
g13
I00
S'\xd3}\xfb\x9c\x9d\x96\xe3?'
p574
tp575
bag3
(g4
(I0
tp576
g6
tp577
Rp578
(I1
(I1
tp579
g13
I00
S'\xcd\xc9\x9a\xce\xb3\x81\xdf?'
p580
tp581
bas.